; Function Attrs: nounwind uwtable
define noalias noundef nonnull ptr @l_Lean_Elab_expandDeclIdCore(ptr noundef %0) local_unnamed_addr #0 {
  %2 = tail call zeroext i8 @l_Lean_Syntax_isIdent(ptr noundef %0) #7
  %3 = icmp eq i8 %2, 0
  br i1 %3, label %4, label %20

4:                                                ; preds = %1
  %5 = tail call ptr @l_Lean_Syntax_getArg(ptr noundef %0, ptr noundef nonnull inttoptr (i64 1 to ptr)) #7
  %6 = tail call ptr @l_Lean_Syntax_getId(ptr noundef %5) #7
  %7 = ptrtoint ptr %5 to i64
  %8 = and i64 %7, 1
  %.not = icmp eq i64 %8, 0
  br i1 %.not, label %9, label %lean_dec.exit

9:                                                ; preds = %4
  %10 = load i32, ptr %5, align 4, !tbaa !4
  %11 = icmp sgt i32 %10, 1
  br i1 %11, label %12, label %14, !prof !13

12:                                               ; preds = %9
  %13 = add nsw i32 %10, -1
  store i32 %13, ptr %5, align 4, !tbaa !4
  br label %lean_dec.exit

14:                                               ; preds = %9
  %.not.i = icmp eq i32 %10, 0
  br i1 %.not.i, label %lean_dec.exit, label %15

15:                                               ; preds = %14
  tail call void @lean_dec_ref_cold(ptr noundef nonnull %5) #7
  br label %lean_dec.exit

lean_dec.exit:                                    ; preds = %15, %14, %12, %4
  %16 = tail call ptr @l_Lean_Syntax_getArg(ptr noundef %0, ptr noundef nonnull inttoptr (i64 3 to ptr)) #7
  tail call void @lean_inc_heartbeat() #7
  %17 = tail call noalias ptr @mi_malloc_small(i64 noundef 24) #7
  %18 = icmp eq ptr %17, null
  br i1 %18, label %19, label %lean_alloc_ctor.exit

19:                                               ; preds = %lean_dec.exit
  tail call void @lean_internal_panic_out_of_memory() #8
  unreachable

20:                                               ; preds = %1
  %21 = tail call ptr @l_Lean_Syntax_getId(ptr noundef %0) #7
  %22 = load ptr, ptr @l_Lean_Elab_expandDeclIdCore___closed__3, align 8, !tbaa !9
  tail call void @lean_inc_heartbeat() #7
  %23 = tail call noalias ptr @mi_malloc_small(i64 noundef 24) #7
  %24 = icmp eq ptr %23, null
  br i1 %24, label %25, label %lean_alloc_ctor.exit

25:                                               ; preds = %20
  tail call void @lean_internal_panic_out_of_memory() #8
  unreachable

lean_alloc_ctor.exit:                             ; preds = %20, %lean_dec.exit
  %.sink27 = phi ptr [ %17, %lean_dec.exit ], [ %23, %20 ]
  %.sink22 = phi ptr [ %6, %lean_dec.exit ], [ %21, %20 ]
  %.sink = phi ptr [ %16, %lean_dec.exit ], [ %22, %20 ]
  %26 = getelementptr inbounds nuw i8, ptr %.sink27, i64 4
  store i32 1, ptr %.sink27, align 4, !tbaa !4
  store i32 131096, ptr %26, align 4
  %27 = getelementptr inbounds nuw i8, ptr %.sink27, i64 8
  store ptr %.sink22, ptr %27, align 8, !tbaa !9
  %28 = getelementptr inbounds nuw i8, ptr %.sink27, i64 16
  store ptr %.sink, ptr %28, align 8, !tbaa !9
  ret ptr %.sink27
}